; Function Attrs: mustprogress nofree norecurse nosync nounwind memory(readwrite, inaccessiblemem: none) uwtable
define hidden noundef i32 @_Z20count_internal_nodesR7svectorIjjER10ptr_vectorI4exprE(ptr noundef nonnull readonly align 8 captures(none) dereferenceable(8) %0, ptr noundef nonnull readonly align 8 captures(none) dereferenceable(8) %1) local_unnamed_addr #6 {
  %3 = load ptr, ptr %1, align 8, !tbaa !58
  %4 = icmp eq ptr %3, null
  br i1 %4, label %_ZN6vectorIP4exprLb0EjE5resetEv.exit, label %_ZN6vectorIP4exprLb0EjE3endEv.exit

_ZN6vectorIP4exprLb0EjE3endEv.exit:               ; preds = %2
  %5 = getelementptr inbounds i8, ptr %3, i64 -4
  %6 = load i32, ptr %5, align 4, !tbaa !56
  %7 = zext i32 %6 to i64
  %8 = getelementptr inbounds nuw ptr, ptr %3, i64 %7
  %.not14 = icmp eq i32 %6, 0
  br i1 %.not14, label %._crit_edge.thread21, label %.lr.ph

.lr.ph:                                           ; preds = %_ZN6vectorIP4exprLb0EjE3endEv.exit
  %9 = load ptr, ptr %0, align 8, !tbaa !53
  br label %11

._crit_edge.thread21:                             ; preds = %21, %_ZN6vectorIP4exprLb0EjE3endEv.exit
  %.0.lcssa23 = phi i32 [ 0, %_ZN6vectorIP4exprLb0EjE3endEv.exit ], [ %.1, %21 ]
  %10 = getelementptr inbounds i8, ptr %3, i64 -4
  store i32 0, ptr %10, align 4, !tbaa !56
  br label %_ZN6vectorIP4exprLb0EjE5resetEv.exit

_ZN6vectorIP4exprLb0EjE5resetEv.exit:             ; preds = %2, %._crit_edge.thread21
  %.0.lcssa20 = phi i32 [ %.0.lcssa23, %._crit_edge.thread21 ], [ 0, %2 ]
  ret i32 %.0.lcssa20

11:                                               ; preds = %.lr.ph, %21
  %.016 = phi i32 [ 0, %.lr.ph ], [ %.1, %21 ]
  %.01315 = phi ptr [ %3, %.lr.ph ], [ %22, %21 ]
  %12 = load ptr, ptr %.01315, align 8, !tbaa !35
  %13 = load i32, ptr %12, align 4, !tbaa !52
  %14 = zext i32 %13 to i64
  %15 = getelementptr inbounds nuw i32, ptr %9, i64 %14
  %16 = load i32, ptr %15, align 4, !tbaa !56
  %17 = icmp eq i32 %16, 0
  br i1 %17, label %18, label %20

18:                                               ; preds = %11
  %19 = add i32 %.016, 1
  br label %21

20:                                               ; preds = %11
  store i32 0, ptr %15, align 4, !tbaa !56
  br label %21

21:                                               ; preds = %20, %18
  %.1 = phi i32 [ %19, %18 ], [ %.016, %20 ]
  %22 = getelementptr inbounds nuw i8, ptr %.01315, i64 8
  %.not = icmp eq ptr %22, %8
  br i1 %.not, label %._crit_edge.thread21, label %11
}